target datalayout = "e-m:e-p270:32:32-p271:32:32-p272:64:64-i64:64-i128:128-f80:128-n8:16:32:64-S128"
target triple = "x86_64-pc-linux-gnu"

%struct.asn1_string_st = type { i32, i32, ptr, i64 }

@.str = private unnamed_addr constant [34 x i8] c"../openssl/crypto/asn1/asn1_lib.c\00", align 1
@.str.1 = private unnamed_addr constant [1 x i8] zeroinitializer, align 1

; Function Attrs: nounwind uwtable
define ptr @ASN1_STRING_get0_data(ptr noundef %0) #0 {
  %2 = alloca ptr, align 8
  store ptr %0, ptr %2, align 8, !tbaa !29
  %3 = load ptr, ptr %2, align 8, !tbaa !29
  %4 = getelementptr inbounds nuw %struct.asn1_string_st, ptr %3, i32 0, i32 2
  %5 = load ptr, ptr %4, align 8, !tbaa !34
  ret ptr %5
}

; Function Attrs: nounwind uwtable
define i32 @ASN1_STRING_length(ptr noundef %0) #0 {
  %2 = alloca ptr, align 8
  store ptr %0, ptr %2, align 8, !tbaa !29
  %3 = load ptr, ptr %2, align 8, !tbaa !29
  %4 = getelementptr inbounds nuw %struct.asn1_string_st, ptr %3, i32 0, i32 0
  %5 = load i32, ptr %4, align 8, !tbaa !35
  ret i32 %5
}

; Function Attrs: inlinehint nounwind uwtable
define internal ptr @ossl_check_const_ASN1_UTF8STRING_sk_type(ptr noundef %0) #5 {
  %2 = alloca ptr, align 8
  store ptr %0, ptr %2, align 8, !tbaa !37
  %3 = load ptr, ptr %2, align 8, !tbaa !37
  ret ptr %3
}

; Function Attrs: nounwind uwtable
define ptr @ossl_sk_ASN1_UTF8STRING2text(ptr noundef %0, ptr noundef %1, i64 noundef %2) #0 {
  %4 = alloca ptr, align 8
  %5 = alloca ptr, align 8
  %6 = alloca ptr, align 8
  %7 = alloca i64, align 8
  %8 = alloca i32, align 4
  %9 = alloca ptr, align 8
  %10 = alloca i64, align 8
  %11 = alloca i64, align 8
  %12 = alloca ptr, align 8
  %13 = alloca ptr, align 8
  %14 = alloca i32, align 4
  store ptr %0, ptr %5, align 8, !tbaa !37
  store ptr %1, ptr %6, align 8, !tbaa !10
  store i64 %2, ptr %7, align 8, !tbaa !8
  call void @llvm.lifetime.start.p0(i64 4, ptr %8) #7
  call void @llvm.lifetime.start.p0(i64 8, ptr %9) #7
  call void @llvm.lifetime.start.p0(i64 8, ptr %10) #7
  store i64 0, ptr %10, align 8, !tbaa !8
  call void @llvm.lifetime.start.p0(i64 8, ptr %11) #7
  call void @llvm.lifetime.start.p0(i64 8, ptr %12) #7
  store ptr null, ptr %12, align 8, !tbaa !10
  call void @llvm.lifetime.start.p0(i64 8, ptr %13) #7
  %15 = load ptr, ptr %6, align 8, !tbaa !10
  %16 = icmp eq ptr %15, null
  br i1 %16, label %17, label %18

17:                                               ; preds = %3
  store ptr @.str.1, ptr %6, align 8, !tbaa !10
  br label %18

18:                                               ; preds = %17, %3
  %19 = load ptr, ptr %6, align 8, !tbaa !10
  %20 = call i64 @strlen(ptr noundef %19) #8
  store i64 %20, ptr %11, align 8, !tbaa !8
  store i32 0, ptr %8, align 4, !tbaa !17
  br label %21

21:                                               ; preds = %52, %18
  %22 = load i32, ptr %8, align 4, !tbaa !17
  %23 = load ptr, ptr %5, align 8, !tbaa !37
  %24 = call ptr @ossl_check_const_ASN1_UTF8STRING_sk_type(ptr noundef %23)
  %25 = call i32 @OPENSSL_sk_num(ptr noundef %24)
  %26 = icmp slt i32 %22, %25
  br i1 %26, label %27, label %55

27:                                               ; preds = %21
  %28 = load ptr, ptr %5, align 8, !tbaa !37
  %29 = call ptr @ossl_check_const_ASN1_UTF8STRING_sk_type(ptr noundef %28)
  %30 = load i32, ptr %8, align 4, !tbaa !17
  %31 = call ptr @OPENSSL_sk_value(ptr noundef %29, i32 noundef %30)
  store ptr %31, ptr %9, align 8, !tbaa !29
  %32 = load i32, ptr %8, align 4, !tbaa !17
  %33 = icmp sgt i32 %32, 0
  br i1 %33, label %34, label %38

34:                                               ; preds = %27
  %35 = load i64, ptr %11, align 8, !tbaa !8
  %36 = load i64, ptr %10, align 8, !tbaa !8
  %37 = add i64 %36, %35
  store i64 %37, ptr %10, align 8, !tbaa !8
  br label %38

38:                                               ; preds = %34, %27
  %39 = load ptr, ptr %9, align 8, !tbaa !29
  %40 = call i32 @ASN1_STRING_length(ptr noundef %39)
  %41 = sext i32 %40 to i64
  %42 = load i64, ptr %10, align 8, !tbaa !8
  %43 = add i64 %42, %41
  store i64 %43, ptr %10, align 8, !tbaa !8
  %44 = load i64, ptr %7, align 8, !tbaa !8
  %45 = icmp ne i64 %44, 0
  br i1 %45, label %46, label %51

46:                                               ; preds = %38
  %47 = load i64, ptr %10, align 8, !tbaa !8
  %48 = load i64, ptr %7, align 8, !tbaa !8
  %49 = icmp ugt i64 %47, %48
  br i1 %49, label %50, label %51

50:                                               ; preds = %46
  store ptr null, ptr %4, align 8
  store i32 1, ptr %14, align 4
  br label %106

51:                                               ; preds = %46, %38
  br label %52

52:                                               ; preds = %51
  %53 = load i32, ptr %8, align 4, !tbaa !17
  %54 = add nsw i32 %53, 1
  store i32 %54, ptr %8, align 4, !tbaa !17
  br label %21, !llvm.loop !39

55:                                               ; preds = %21
  %56 = load i64, ptr %10, align 8, !tbaa !8
  %57 = add i64 %56, 1
  %58 = call noalias ptr @CRYPTO_malloc(i64 noundef %57, ptr noundef @.str, i32 noundef 456)
  store ptr %58, ptr %12, align 8, !tbaa !10
  %59 = icmp eq ptr %58, null
  br i1 %59, label %60, label %61

60:                                               ; preds = %55
  store ptr null, ptr %4, align 8
  store i32 1, ptr %14, align 4
  br label %106

61:                                               ; preds = %55
  %62 = load ptr, ptr %12, align 8, !tbaa !10
  store ptr %62, ptr %13, align 8, !tbaa !10
  store i32 0, ptr %8, align 4, !tbaa !17
  br label %63

63:                                               ; preds = %100, %61
  %64 = load i32, ptr %8, align 4, !tbaa !17
  %65 = load ptr, ptr %5, align 8, !tbaa !37
  %66 = call ptr @ossl_check_const_ASN1_UTF8STRING_sk_type(ptr noundef %65)
  %67 = call i32 @OPENSSL_sk_num(ptr noundef %66)
  %68 = icmp slt i32 %64, %67
  br i1 %68, label %69, label %103

69:                                               ; preds = %63
  %70 = load ptr, ptr %5, align 8, !tbaa !37
  %71 = call ptr @ossl_check_const_ASN1_UTF8STRING_sk_type(ptr noundef %70)
  %72 = load i32, ptr %8, align 4, !tbaa !17
  %73 = call ptr @OPENSSL_sk_value(ptr noundef %71, i32 noundef %72)
  store ptr %73, ptr %9, align 8, !tbaa !29
  %74 = load ptr, ptr %9, align 8, !tbaa !29
  %75 = call i32 @ASN1_STRING_length(ptr noundef %74)
  %76 = sext i32 %75 to i64
  store i64 %76, ptr %10, align 8, !tbaa !8
  %77 = load i32, ptr %8, align 4, !tbaa !17
  %78 = icmp sgt i32 %77, 0
  br i1 %78, label %79, label %91

79:                                               ; preds = %69
  %80 = load i64, ptr %11, align 8, !tbaa !8
  %81 = icmp ugt i64 %80, 0
  br i1 %81, label %82, label %91

82:                                               ; preds = %79
  %83 = load ptr, ptr %13, align 8, !tbaa !10
  %84 = load ptr, ptr %6, align 8, !tbaa !10
  %85 = load i64, ptr %11, align 8, !tbaa !8
  %86 = add i64 %85, 1
  %87 = call ptr @strncpy(ptr noundef %83, ptr noundef %84, i64 noundef %86) #7
  %88 = load i64, ptr %11, align 8, !tbaa !8
  %89 = load ptr, ptr %13, align 8, !tbaa !10
  %90 = getelementptr inbounds nuw i8, ptr %89, i64 %88
  store ptr %90, ptr %13, align 8, !tbaa !10
  br label %91

91:                                               ; preds = %82, %79, %69
  %92 = load ptr, ptr %13, align 8, !tbaa !10
  %93 = load ptr, ptr %9, align 8, !tbaa !29
  %94 = call ptr @ASN1_STRING_get0_data(ptr noundef %93)
  %95 = load i64, ptr %10, align 8, !tbaa !8
  %96 = call ptr @strncpy(ptr noundef %92, ptr noundef %94, i64 noundef %95) #7
  %97 = load i64, ptr %10, align 8, !tbaa !8
  %98 = load ptr, ptr %13, align 8, !tbaa !10
  %99 = getelementptr inbounds nuw i8, ptr %98, i64 %97
  store ptr %99, ptr %13, align 8, !tbaa !10
  br label %100

100:                                              ; preds = %91
  %101 = load i32, ptr %8, align 4, !tbaa !17
  %102 = add nsw i32 %101, 1
  store i32 %102, ptr %8, align 4, !tbaa !17
  br label %63, !llvm.loop !40

103:                                              ; preds = %63
  %104 = load ptr, ptr %13, align 8, !tbaa !10
  store i8 0, ptr %104, align 1, !tbaa !12
  %105 = load ptr, ptr %12, align 8, !tbaa !10
  store ptr %105, ptr %4, align 8
  store i32 1, ptr %14, align 4
  br label %106

106:                                              ; preds = %103, %60, %50
  call void @llvm.lifetime.end.p0(i64 8, ptr %13) #7
  call void @llvm.lifetime.end.p0(i64 8, ptr %12) #7
  call void @llvm.lifetime.end.p0(i64 8, ptr %11) #7
  call void @llvm.lifetime.end.p0(i64 8, ptr %10) #7
  call void @llvm.lifetime.end.p0(i64 8, ptr %9) #7
  call void @llvm.lifetime.end.p0(i64 4, ptr %8) #7
  %107 = load ptr, ptr %4, align 8
  ret ptr %107
}