; Function Attrs: nounwind uwtable
define ptr @ossl_sk_ASN1_UTF8STRING2text(ptr noundef %0, ptr noundef readonly captures(address_is_null) %1, i64 noundef %2) local_unnamed_addr #1 {
  %4 = icmp eq ptr %1, null
  %spec.store.select = select i1 %4, ptr @.str.1, ptr %1
  %5 = tail call i64 @strlen(ptr noundef nonnull dereferenceable(1) %spec.store.select) #14
  %.fr57 = freeze i64 %5
  %6 = tail call i32 @OPENSSL_sk_num(ptr noundef %0) #13
  %7 = icmp sgt i32 %6, 0
  br i1 %7, label %.lr.ph, label %._crit_edge

.lr.ph:                                           ; preds = %3
  %.not46.not = icmp eq i64 %2, 0
  br i1 %.not46.not, label %.lr.ph.split.us, label %.lr.ph.split

.lr.ph.split.us:                                  ; preds = %.lr.ph, %.lr.ph.split.us
  %.03950.us = phi i64 [ %12, %.lr.ph.split.us ], [ 0, %.lr.ph ]
  %.04149.us = phi i32 [ %13, %.lr.ph.split.us ], [ 0, %.lr.ph ]
  %8 = tail call ptr @OPENSSL_sk_value(ptr noundef %0, i32 noundef %.04149.us) #13
  %.not.us = icmp eq i32 %.04149.us, 0
  %9 = select i1 %.not.us, i64 0, i64 %.fr57
  %spec.select.us = add i64 %9, %.03950.us
  %10 = load i32, ptr %8, align 8, !tbaa !26
  %11 = sext i32 %10 to i64
  %12 = add i64 %spec.select.us, %11
  %13 = add nuw nsw i32 %.04149.us, 1
  %14 = tail call i32 @OPENSSL_sk_num(ptr noundef %0) #13
  %15 = icmp slt i32 %13, %14
  br i1 %15, label %.lr.ph.split.us, label %._crit_edge, !llvm.loop !27

16:                                               ; preds = %.lr.ph.split
  %17 = add nuw nsw i32 %.04149, 1
  %18 = tail call i32 @OPENSSL_sk_num(ptr noundef %0) #13
  %19 = icmp slt i32 %17, %18
  br i1 %19, label %.lr.ph.split, label %._crit_edge, !llvm.loop !27

.lr.ph.split:                                     ; preds = %.lr.ph, %16
  %.03950 = phi i64 [ %24, %16 ], [ 0, %.lr.ph ]
  %.04149 = phi i32 [ %17, %16 ], [ 0, %.lr.ph ]
  %20 = tail call ptr @OPENSSL_sk_value(ptr noundef %0, i32 noundef %.04149) #13
  %.not = icmp eq i32 %.04149, 0
  %21 = select i1 %.not, i64 0, i64 %.fr57
  %spec.select = add i64 %21, %.03950
  %22 = load i32, ptr %20, align 8, !tbaa !26
  %23 = sext i32 %22 to i64
  %24 = add i64 %spec.select, %23
  %25 = icmp ugt i64 %24, %2
  br i1 %25, label %.loopexit, label %16

._crit_edge:                                      ; preds = %16, %.lr.ph.split.us, %3
  %.039.lcssa = phi i64 [ 0, %3 ], [ %12, %.lr.ph.split.us ], [ %24, %16 ]
  %26 = add i64 %.039.lcssa, 1
  %27 = tail call noalias ptr @CRYPTO_malloc(i64 noundef %26, ptr noundef nonnull @.str, i32 noundef 456) #13
  %28 = icmp eq ptr %27, null
  br i1 %28, label %.loopexit, label %.preheader

.preheader:                                       ; preds = %._crit_edge
  %29 = tail call i32 @OPENSSL_sk_num(ptr noundef %0) #13
  %30 = icmp sgt i32 %29, 0
  br i1 %30, label %.lr.ph53, label %._crit_edge54

.lr.ph53:                                         ; preds = %.preheader
  %.not58 = icmp eq i64 %.fr57, 0
  %31 = add i64 %.fr57, 1
  br i1 %.not58, label %.lr.ph53.split.us, label %.lr.ph53.split

.lr.ph53.split.us:                                ; preds = %.lr.ph53, %.lr.ph53.split.us
  %.052.us = phi ptr [ %38, %.lr.ph53.split.us ], [ %27, %.lr.ph53 ]
  %.14251.us = phi i32 [ %39, %.lr.ph53.split.us ], [ 0, %.lr.ph53 ]
  %32 = tail call ptr @OPENSSL_sk_value(ptr noundef %0, i32 noundef %.14251.us) #13
  %33 = load i32, ptr %32, align 8, !tbaa !26
  %34 = sext i32 %33 to i64
  %35 = getelementptr inbounds nuw i8, ptr %32, i64 8
  %36 = load ptr, ptr %35, align 8, !tbaa !25
  %37 = tail call ptr @strncpy(ptr noundef %.052.us, ptr noundef %36, i64 noundef %34) #13
  %38 = getelementptr inbounds nuw i8, ptr %.052.us, i64 %34
  %39 = add nuw nsw i32 %.14251.us, 1
  %40 = tail call i32 @OPENSSL_sk_num(ptr noundef %0) #13
  %41 = icmp slt i32 %39, %40
  br i1 %41, label %.lr.ph53.split.us, label %._crit_edge54, !llvm.loop !28

.lr.ph53.split:                                   ; preds = %.lr.ph53, %48
  %.052 = phi ptr [ %52, %48 ], [ %27, %.lr.ph53 ]
  %.14251 = phi i32 [ %53, %48 ], [ 0, %.lr.ph53 ]
  %42 = tail call ptr @OPENSSL_sk_value(ptr noundef %0, i32 noundef %.14251) #13
  %43 = load i32, ptr %42, align 8, !tbaa !26
  %44 = sext i32 %43 to i64
  %.not59 = icmp eq i32 %.14251, 0
  br i1 %.not59, label %48, label %45

45:                                               ; preds = %.lr.ph53.split
  %46 = tail call ptr @strncpy(ptr noundef %.052, ptr noundef nonnull %spec.store.select, i64 noundef %31) #13
  %47 = getelementptr inbounds nuw i8, ptr %.052, i64 %.fr57
  br label %48

48:                                               ; preds = %45, %.lr.ph53.split
  %.1 = phi ptr [ %47, %45 ], [ %.052, %.lr.ph53.split ]
  %49 = getelementptr inbounds nuw i8, ptr %42, i64 8
  %50 = load ptr, ptr %49, align 8, !tbaa !25
  %51 = tail call ptr @strncpy(ptr noundef %.1, ptr noundef %50, i64 noundef %44) #13
  %52 = getelementptr inbounds nuw i8, ptr %.1, i64 %44
  %53 = add nuw nsw i32 %.14251, 1
  %54 = tail call i32 @OPENSSL_sk_num(ptr noundef %0) #13
  %55 = icmp slt i32 %53, %54
  br i1 %55, label %.lr.ph53.split, label %._crit_edge54, !llvm.loop !28

._crit_edge54:                                    ; preds = %48, %.lr.ph53.split.us, %.preheader
  %.0.lcssa = phi ptr [ %27, %.preheader ], [ %38, %.lr.ph53.split.us ], [ %52, %48 ]
  store i8 0, ptr %.0.lcssa, align 1, !tbaa !8
  br label %.loopexit

.loopexit:                                        ; preds = %.lr.ph.split, %._crit_edge, %._crit_edge54
  %.038 = phi ptr [ %27, %._crit_edge54 ], [ null, %._crit_edge ], [ null, %.lr.ph.split ]
  ret ptr %.038
}